; Function Attrs: mustprogress uwtable
define void @_ZN11WelcomePage14openRecentItemEP15QListWidgetItem(ptr noundef nonnull align 8 dereferenceable(112) %0, ptr noundef %1) local_unnamed_addr #0 align 2 personality ptr @__gxx_personality_v0 {
  %3 = alloca %class.QString, align 8
  %4 = alloca %class.QVariant, align 8
  %5 = alloca %class.QString, align 8
  %6 = load ptr, ptr %1, align 8
  %7 = getelementptr inbounds i8, ptr %6, i64 24
  %8 = load ptr, ptr %7, align 8
  call void %8(ptr dead_on_unwind nonnull writable sret(%class.QVariant) align 8 %4, ptr noundef nonnull align 8 dereferenceable(36) %1, i32 noundef 256)
  invoke void @_ZNK8QVariant8toStringEv(ptr dead_on_unwind nonnull writable sret(%class.QString) align 8 %3, ptr noundef nonnull align 8 dereferenceable(32) %4)
          to label %9 unwind label %28

9:                                                ; preds = %2
  call void @_ZN8QVariantD1Ev(ptr noundef nonnull align 8 dereferenceable(32) %4) #18
  %10 = load ptr, ptr %3, align 8
  store ptr %10, ptr %5, align 8
  %11 = getelementptr inbounds i8, ptr %5, i64 8
  %12 = getelementptr inbounds i8, ptr %3, i64 8
  %13 = load ptr, ptr %12, align 8
  store ptr %13, ptr %11, align 8
  %14 = getelementptr inbounds i8, ptr %5, i64 16
  %15 = getelementptr inbounds i8, ptr %3, i64 16
  %16 = load i64, ptr %15, align 8
  store i64 %16, ptr %14, align 8
  %.not.i.i.i = icmp eq ptr %10, null
  br i1 %.not.i.i.i, label %_ZN7QStringC2ERKS_.exit, label %17

17:                                               ; preds = %9
  %18 = atomicrmw add ptr %10, i32 1 seq_cst, align 4
  br label %_ZN7QStringC2ERKS_.exit

_ZN7QStringC2ERKS_.exit:                          ; preds = %9, %17
  invoke void @_ZN11WelcomePage19recentFileActivatedE7QString(ptr noundef nonnull align 8 dereferenceable(112) %0, ptr noundef nonnull %5)
          to label %19 unwind label %30

19:                                               ; preds = %_ZN7QStringC2ERKS_.exit
  %20 = load ptr, ptr %5, align 8
  %.not.i.i.i5 = icmp eq ptr %20, null
  br i1 %.not.i.i.i5, label %_ZN7QStringD2Ev.exit, label %_ZN17QArrayDataPointerIDsE5derefEv.exit.i.i

_ZN17QArrayDataPointerIDsE5derefEv.exit.i.i:      ; preds = %19
  %21 = atomicrmw sub ptr %20, i32 1 seq_cst, align 4
  %.not.i.i = icmp eq i32 %21, 1
  br i1 %.not.i.i, label %22, label %_ZN7QStringD2Ev.exit

22:                                               ; preds = %_ZN17QArrayDataPointerIDsE5derefEv.exit.i.i
  %23 = load ptr, ptr %5, align 8
  call void @_ZN10QArrayData10deallocateEPS_xx(ptr noundef %23, i64 noundef 2, i64 noundef 8) #18
  br label %_ZN7QStringD2Ev.exit

_ZN7QStringD2Ev.exit:                             ; preds = %19, %_ZN17QArrayDataPointerIDsE5derefEv.exit.i.i, %22
  %24 = load ptr, ptr %3, align 8
  %.not.i.i.i6 = icmp eq ptr %24, null
  br i1 %.not.i.i.i6, label %_ZN7QStringD2Ev.exit9, label %_ZN17QArrayDataPointerIDsE5derefEv.exit.i.i7

_ZN17QArrayDataPointerIDsE5derefEv.exit.i.i7:     ; preds = %_ZN7QStringD2Ev.exit
  %25 = atomicrmw sub ptr %24, i32 1 seq_cst, align 4
  %.not.i.i8 = icmp eq i32 %25, 1
  br i1 %.not.i.i8, label %26, label %_ZN7QStringD2Ev.exit9

26:                                               ; preds = %_ZN17QArrayDataPointerIDsE5derefEv.exit.i.i7
  %27 = load ptr, ptr %3, align 8
  call void @_ZN10QArrayData10deallocateEPS_xx(ptr noundef %27, i64 noundef 2, i64 noundef 8) #18
  br label %_ZN7QStringD2Ev.exit9

_ZN7QStringD2Ev.exit9:                            ; preds = %_ZN7QStringD2Ev.exit, %_ZN17QArrayDataPointerIDsE5derefEv.exit.i.i7, %26
  ret void

28:                                               ; preds = %2
  %29 = landingpad { ptr, i32 }
          cleanup
  call void @_ZN8QVariantD1Ev(ptr noundef nonnull align 8 dereferenceable(32) %4) #18
  br label %_ZN7QStringD2Ev.exit17

30:                                               ; preds = %_ZN7QStringC2ERKS_.exit
  %31 = landingpad { ptr, i32 }
          cleanup
  %32 = load ptr, ptr %5, align 8
  %.not.i.i.i10 = icmp eq ptr %32, null
  br i1 %.not.i.i.i10, label %_ZN7QStringD2Ev.exit13, label %_ZN17QArrayDataPointerIDsE5derefEv.exit.i.i11

_ZN17QArrayDataPointerIDsE5derefEv.exit.i.i11:    ; preds = %30
  %33 = atomicrmw sub ptr %32, i32 1 seq_cst, align 4
  %.not.i.i12 = icmp eq i32 %33, 1
  br i1 %.not.i.i12, label %34, label %_ZN7QStringD2Ev.exit13

34:                                               ; preds = %_ZN17QArrayDataPointerIDsE5derefEv.exit.i.i11
  %35 = load ptr, ptr %5, align 8
  call void @_ZN10QArrayData10deallocateEPS_xx(ptr noundef %35, i64 noundef 2, i64 noundef 8) #18
  br label %_ZN7QStringD2Ev.exit13

_ZN7QStringD2Ev.exit13:                           ; preds = %30, %_ZN17QArrayDataPointerIDsE5derefEv.exit.i.i11, %34
  %36 = load ptr, ptr %3, align 8
  %.not.i.i.i14 = icmp eq ptr %36, null
  br i1 %.not.i.i.i14, label %_ZN7QStringD2Ev.exit17, label %_ZN17QArrayDataPointerIDsE5derefEv.exit.i.i15

_ZN17QArrayDataPointerIDsE5derefEv.exit.i.i15:    ; preds = %_ZN7QStringD2Ev.exit13
  %37 = atomicrmw sub ptr %36, i32 1 seq_cst, align 4
  %.not.i.i16 = icmp eq i32 %37, 1
  br i1 %.not.i.i16, label %38, label %_ZN7QStringD2Ev.exit17

38:                                               ; preds = %_ZN17QArrayDataPointerIDsE5derefEv.exit.i.i15
  %39 = load ptr, ptr %3, align 8
  call void @_ZN10QArrayData10deallocateEPS_xx(ptr noundef %39, i64 noundef 2, i64 noundef 8) #18
  br label %_ZN7QStringD2Ev.exit17

_ZN7QStringD2Ev.exit17:                           ; preds = %38, %_ZN17QArrayDataPointerIDsE5derefEv.exit.i.i15, %_ZN7QStringD2Ev.exit13, %28
  %.pn = phi { ptr, i32 } [ %29, %28 ], [ %31, %_ZN7QStringD2Ev.exit13 ], [ %31, %_ZN17QArrayDataPointerIDsE5derefEv.exit.i.i15 ], [ %31, %38 ]
  resume { ptr, i32 } %.pn
}